; Function Attrs: mustprogress uwtable
define internal noundef zeroext i1 @"_ZNSt17_Function_handlerIFbRKN32pxrInternal_v0_24__pxrReserved__9UsdNotice14ObjectsChangedEEZ18TestObjectsChangedvE3$_8E9_M_invokeERKSt9_Any_dataS4_"(ptr noundef nonnull readonly align 8 captures(none) dereferenceable(16) %0, ptr noundef nonnull align 8 dereferenceable(48) %1) #0 align 2 {
  %3 = alloca %"struct.pxrInternal_v0_24__pxrReserved__::Tf_DiagnosticLiteHelper", align 8
  %.val = load ptr, ptr %0, align 8
  %4 = tail call noundef zeroext i1 @_ZNK32pxrInternal_v0_24__pxrReserved__9UsdNotice14ObjectsChanged14ResyncedObjectERKNS_9UsdObjectE(ptr noundef nonnull align 8 dereferenceable(48) %1, ptr noundef nonnull align 8 dereferenceable(32) %.val)
  call void @llvm.lifetime.start.p0(i64 48, ptr nonnull %3)
  br i1 %4, label %"_ZSt10__invoke_rIbRZ18TestObjectsChangedvE3$_8JRKN32pxrInternal_v0_24__pxrReserved__9UsdNotice14ObjectsChangedEEENSt9enable_ifIX16is_invocable_r_vIT_T0_DpT1_EES8_E4typeEOS9_DpOSA_.exit", label %5

5:                                                ; preds = %2
  store ptr @.str.38, ptr %3, align 8
  %.sroa.2.0..sroa_idx.i.i.i = getelementptr inbounds nuw i8, ptr %3, i64 8
  store ptr @"__func__._ZZ18TestObjectsChangedvENK3$_0clERKN32pxrInternal_v0_24__pxrReserved__9UsdNotice14ObjectsChangedE", ptr %.sroa.2.0..sroa_idx.i.i.i, align 8
  %.sroa.3.0..sroa_idx.i.i.i = getelementptr inbounds nuw i8, ptr %3, i64 16
  store i64 189, ptr %.sroa.3.0..sroa_idx.i.i.i, align 8
  %.sroa.4.0..sroa_idx.i.i.i = getelementptr inbounds nuw i8, ptr %3, i64 24
  store ptr @"__PRETTY_FUNCTION__._ZZ18TestObjectsChangedvENK3$_0clERKN32pxrInternal_v0_24__pxrReserved__9UsdNotice14ObjectsChangedE", ptr %.sroa.4.0..sroa_idx.i.i.i, align 8
  %.sroa.5.0..sroa_idx.i.i.i = getelementptr inbounds nuw i8, ptr %3, i64 32
  store i8 0, ptr %.sroa.5.0..sroa_idx.i.i.i, align 8
  %6 = getelementptr inbounds nuw i8, ptr %3, i64 40
  store i32 4, ptr %6, align 8
  call void (ptr, ptr, ...) @_ZNK32pxrInternal_v0_24__pxrReserved__23Tf_DiagnosticLiteHelper15IssueFatalErrorEPKcz(ptr noundef nonnull align 8 dereferenceable(44) %3, ptr noundef nonnull @.str.56, ptr noundef nonnull @.str.64) #22
  unreachable

"_ZSt10__invoke_rIbRZ18TestObjectsChangedvE3$_8JRKN32pxrInternal_v0_24__pxrReserved__9UsdNotice14ObjectsChangedEEENSt9enable_ifIX16is_invocable_r_vIT_T0_DpT1_EES8_E4typeEOS9_DpOSA_.exit": ; preds = %2
  call void @llvm.lifetime.end.p0(i64 48, ptr nonnull %3)
  ret i1 true
}